; Function Attrs: mustprogress uwtable
define void @_ZN6duckdb14BaseStatistics3SetENS_9StatsInfoE(ptr noundef nonnull align 8 dereferenceable(88) %0, i8 noundef zeroext %1) local_unnamed_addr #3 align 2 personality ptr @__gxx_personality_v0 {
  %3 = alloca %"class.std::__cxx11::basic_string", align 8
  %4 = alloca %"class.std::allocator", align 1
  switch i8 %1, label %12 [
    i8 0, label %5
    i8 1, label %6
    i8 2, label %8
    i8 3, label %9
    i8 4, label %11
  ]

5:                                                ; preds = %2
  tail call void @_ZN6duckdb14BaseStatistics10SetHasNullEv(ptr noundef nonnull align 8 dereferenceable(88) %0)
  br label %26

6:                                                ; preds = %2
  %7 = getelementptr inbounds nuw i8, ptr %0, i64 24
  store i8 0, ptr %7, align 8, !tbaa !49
  br label %26

8:                                                ; preds = %2
  tail call void @_ZN6duckdb14BaseStatistics12SetHasNoNullEv(ptr noundef nonnull align 8 dereferenceable(88) %0)
  br label %26

9:                                                ; preds = %2
  %10 = getelementptr inbounds nuw i8, ptr %0, i64 25
  store i8 0, ptr %10, align 1, !tbaa !52
  br label %26

11:                                               ; preds = %2
  tail call void @_ZN6duckdb14BaseStatistics10SetHasNullEv(ptr noundef nonnull align 8 dereferenceable(88) %0)
  tail call void @_ZN6duckdb14BaseStatistics12SetHasNoNullEv(ptr noundef nonnull align 8 dereferenceable(88) %0)
  br label %26

12:                                               ; preds = %2
  %13 = tail call ptr @__cxa_allocate_exception(i64 16) #29
  call void @llvm.lifetime.start.p0(i64 32, ptr nonnull %3) #29
  call void @llvm.lifetime.start.p0(i64 1, ptr nonnull %4) #29
  invoke void @_ZNSt7__cxx1112basic_stringIcSt11char_traitsIcESaIcEEC2EPKcRKS3_(ptr noundef nonnull align 8 dereferenceable(32) %3, ptr noundef nonnull @.str, ptr noundef nonnull align 1 dereferenceable(1) %4)
          to label %14 unwind label %_ZNSt7__cxx1112basic_stringIcSt11char_traitsIcESaIcEED2Ev.exit.thread

14:                                               ; preds = %12
  invoke void @_ZN6duckdb17InternalExceptionC1ERKNSt7__cxx1112basic_stringIcSt11char_traitsIcESaIcEEE(ptr noundef nonnull align 8 dereferenceable(16) %13, ptr noundef nonnull align 8 dereferenceable(32) %3)
          to label %15 unwind label %17

15:                                               ; preds = %14
  invoke void @__cxa_throw(ptr nonnull %13, ptr nonnull @_ZTIN6duckdb17InternalExceptionE, ptr nonnull @_ZNSt13runtime_errorD2Ev) #33
          to label %28 unwind label %17

_ZNSt7__cxx1112basic_stringIcSt11char_traitsIcESaIcEED2Ev.exit.thread: ; preds = %12
  %16 = landingpad { ptr, i32 }
          cleanup
  call void @llvm.lifetime.end.p0(i64 1, ptr nonnull %4) #29
  call void @llvm.lifetime.end.p0(i64 32, ptr nonnull %3) #29
  br label %25

17:                                               ; preds = %15, %14
  %.0 = phi i1 [ false, %15 ], [ true, %14 ]
  %18 = landingpad { ptr, i32 }
          cleanup
  %19 = load ptr, ptr %3, align 8, !tbaa !77
  %20 = getelementptr inbounds nuw i8, ptr %3, i64 16
  %21 = icmp eq ptr %19, %20
  br i1 %21, label %_ZNKSt7__cxx1112basic_stringIcSt11char_traitsIcESaIcEE11_M_is_localEv.exit.thread.i.i, label %_ZNSt7__cxx1112basic_stringIcSt11char_traitsIcESaIcEED2Ev.exit

_ZNKSt7__cxx1112basic_stringIcSt11char_traitsIcESaIcEE11_M_is_localEv.exit.thread.i.i: ; preds = %17
  %22 = getelementptr inbounds nuw i8, ptr %3, i64 8
  %23 = load i64, ptr %22, align 8, !tbaa !81
  %24 = icmp ult i64 %23, 16
  call void @llvm.assume(i1 %24)
  call void @llvm.lifetime.end.p0(i64 1, ptr nonnull %4) #29
  call void @llvm.lifetime.end.p0(i64 32, ptr nonnull %3) #29
  br i1 %.0, label %25, label %27

_ZNSt7__cxx1112basic_stringIcSt11char_traitsIcESaIcEED2Ev.exit: ; preds = %17
  call void @_ZdlPv(ptr noundef %19) #30
  call void @llvm.lifetime.end.p0(i64 1, ptr nonnull %4) #29
  call void @llvm.lifetime.end.p0(i64 32, ptr nonnull %3) #29
  br i1 %.0, label %25, label %27

25:                                               ; preds = %_ZNKSt7__cxx1112basic_stringIcSt11char_traitsIcESaIcEE11_M_is_localEv.exit.thread.i.i, %_ZNSt7__cxx1112basic_stringIcSt11char_traitsIcESaIcEED2Ev.exit.thread, %_ZNSt7__cxx1112basic_stringIcSt11char_traitsIcESaIcEED2Ev.exit
  %.pn10 = phi { ptr, i32 } [ %16, %_ZNSt7__cxx1112basic_stringIcSt11char_traitsIcESaIcEED2Ev.exit.thread ], [ %18, %_ZNSt7__cxx1112basic_stringIcSt11char_traitsIcESaIcEED2Ev.exit ], [ %18, %_ZNKSt7__cxx1112basic_stringIcSt11char_traitsIcESaIcEE11_M_is_localEv.exit.thread.i.i ]
  call void @__cxa_free_exception(ptr %13) #29
  br label %27

26:                                               ; preds = %11, %9, %8, %6, %5
  ret void

27:                                               ; preds = %_ZNKSt7__cxx1112basic_stringIcSt11char_traitsIcESaIcEE11_M_is_localEv.exit.thread.i.i, %_ZNSt7__cxx1112basic_stringIcSt11char_traitsIcESaIcEED2Ev.exit, %25
  %.pn9 = phi { ptr, i32 } [ %18, %_ZNSt7__cxx1112basic_stringIcSt11char_traitsIcESaIcEED2Ev.exit ], [ %.pn10, %25 ], [ %18, %_ZNKSt7__cxx1112basic_stringIcSt11char_traitsIcESaIcEE11_M_is_localEv.exit.thread.i.i ]
  resume { ptr, i32 } %.pn9

28:                                               ; preds = %15
  unreachable
}